target datalayout = "e-m:e-p270:32:32-p271:32:32-p272:64:64-i64:64-i128:128-f80:128-n8:16:32:64-S128"
target triple = "x86_64-pc-linux-gnu"

%struct.PyVarObject = type { %struct._object, i64 }
%struct._object = type { i64, ptr }
%"struct.nanobind::detail::type_data" = type { i32, i32, ptr, ptr, ptr, ptr, ptr, ptr, ptr, ptr, %union.anon, ptr, ptr }
%union.anon = type { %struct.anon }
%struct.anon = type { ptr, ptr }
%"struct.nanobind::detail::nb_func" = type { %struct.PyVarObject, ptr, i32, i8, i8 }

@PyExc_TypeError = external global ptr, align 8
@.str.21 = private unnamed_addr constant [28 x i8] c"%s: no constructor defined!\00", align 1

; Function Attrs: inlinehint mustprogress uwtable
define internal void @_ZL10_Py_DECREFP7_object(ptr noundef %0) #10 {
  %2 = alloca ptr, align 8
  store ptr %0, ptr %2, align 8
  %3 = load ptr, ptr %2, align 8
  %4 = getelementptr inbounds nuw %struct._object, ptr %3, i32 0, i32 0
  %5 = load i64, ptr %4, align 8
  %6 = add nsw i64 %5, -1
  store i64 %6, ptr %4, align 8
  %7 = icmp ne i64 %6, 0
  br i1 %7, label %8, label %9

8:                                                ; preds = %1
  br label %11

9:                                                ; preds = %1
  %10 = load ptr, ptr %2, align 8
  call void @_Py_Dealloc(ptr noundef %10)
  br label %11

11:                                               ; preds = %9, %8
  ret void
}

; Function Attrs: inlinehint mustprogress nounwind uwtable
define internal noundef i64 @_ZL18PyVectorcall_NARGSm(i64 noundef %0) #2 {
  %2 = alloca i64, align 8
  store i64 %0, ptr %2, align 8
  %3 = load i64, ptr %2, align 8
  %4 = and i64 %3, 9223372036854775807
  ret i64 %4
}

; Function Attrs: alwaysinline mustprogress nounwind uwtable
define linkonce_odr hidden noundef ptr @_ZN8nanobind6detail12nb_type_dataEP11_typeobject(ptr noundef %0) #5 comdat {
  %2 = alloca ptr, align 8
  store ptr %0, ptr %2, align 8
  %3 = load ptr, ptr %2, align 8
  %4 = getelementptr inbounds nuw i8, ptr %3, i64 888
  ret ptr %4
}

; Function Attrs: mustprogress nounwind uwtable
define internal noundef ptr @_ZN8nanobind6detailL18nb_type_vectorcallEP7_objectPKS2_mS2_(ptr noundef %0, ptr noundef %1, i64 noundef %2, ptr noundef %3) #6 personality ptr @__gxx_personality_v0 {
  %5 = alloca ptr, align 8
  %6 = alloca ptr, align 8
  %7 = alloca ptr, align 8
  %8 = alloca i64, align 8
  %9 = alloca ptr, align 8
  %10 = alloca ptr, align 8
  %11 = alloca ptr, align 8
  %12 = alloca ptr, align 8
  %13 = alloca i8, align 1
  %14 = alloca i64, align 8
  %15 = alloca i32, align 4
  %16 = alloca i64, align 8
  %17 = alloca ptr, align 8
  %18 = alloca [5 x ptr], align 16
  %19 = alloca ptr, align 8
  %20 = alloca i8, align 1
  %21 = alloca i64, align 8
  %22 = alloca ptr, align 8
  store ptr %0, ptr %6, align 8
  store ptr %1, ptr %7, align 8
  store i64 %2, ptr %8, align 8
  store ptr %3, ptr %9, align 8
  call void @llvm.lifetime.start.p0(i64 8, ptr %10) #20
  %23 = load ptr, ptr %6, align 8
  store ptr %23, ptr %10, align 8
  call void @llvm.lifetime.start.p0(i64 8, ptr %11) #20
  %24 = load ptr, ptr %10, align 8
  %25 = call noundef ptr @_ZN8nanobind6detail12nb_type_dataEP11_typeobject(ptr noundef %24) #20
  store ptr %25, ptr %11, align 8
  call void @llvm.lifetime.start.p0(i64 8, ptr %12) #20
  %26 = load ptr, ptr %11, align 8
  %27 = getelementptr inbounds nuw %"struct.nanobind::detail::type_data", ptr %26, i32 0, i32 6
  %28 = load ptr, ptr %27, align 8
  store ptr %28, ptr %12, align 8
  call void @llvm.lifetime.start.p0(i64 1, ptr %13) #20
  %29 = load ptr, ptr %11, align 8
  %30 = getelementptr inbounds nuw %"struct.nanobind::detail::type_data", ptr %29, i32 0, i32 1
  %31 = load i32, ptr %30, align 4
  %32 = lshr i32 %31, 8
  %33 = and i32 %32, 65536
  %34 = icmp eq i32 %33, 0
  %35 = zext i1 %34 to i8
  store i8 %35, ptr %13, align 1
  call void @llvm.lifetime.start.p0(i64 8, ptr %14) #20
  %36 = load i64, ptr %8, align 8
  %37 = invoke noundef i64 @_ZL18PyVectorcall_NARGSm(i64 noundef %36)
          to label %38 unwind label %190

38:                                               ; preds = %4
  store i64 %37, ptr %14, align 8
  %39 = load ptr, ptr %12, align 8
  %40 = icmp ne ptr %39, null
  %41 = xor i1 %40, true
  %42 = zext i1 %41 to i64
  %43 = call i64 @llvm.expect.i64(i64 %42, i64 0)
  %44 = icmp ne i64 %43, 0
  br i1 %44, label %45, label %52

45:                                               ; preds = %38
  %46 = load ptr, ptr @PyExc_TypeError, align 8
  %47 = load ptr, ptr %11, align 8
  %48 = getelementptr inbounds nuw %"struct.nanobind::detail::type_data", ptr %47, i32 0, i32 2
  %49 = load ptr, ptr %48, align 8
  %50 = invoke ptr (ptr, ptr, ...) @PyErr_Format(ptr noundef %46, ptr noundef @.str.21, ptr noundef %49)
          to label %51 unwind label %190

51:                                               ; preds = %45
  store ptr null, ptr %5, align 8
  store i32 1, ptr %15, align 4
  br label %188

52:                                               ; preds = %38
  %53 = load i8, ptr %13, align 1, !range !3, !noundef !4
  %54 = trunc i8 %53 to i1
  %55 = zext i1 %54 to i64
  %56 = call i64 @llvm.expect.i64(i64 %55, i64 1)
  %57 = icmp ne i64 %56, 0
  br i1 %57, label %58, label %66

58:                                               ; preds = %52
  %59 = load ptr, ptr %10, align 8
  %60 = invoke noundef ptr @_ZN8nanobind6detail12inst_new_intEP11_typeobjectP7_objectS4_(ptr noundef %59, ptr noundef null, ptr noundef null)
          to label %61 unwind label %190

61:                                               ; preds = %58
  store ptr %60, ptr %6, align 8
  %62 = load ptr, ptr %6, align 8
  %63 = icmp ne ptr %62, null
  br i1 %63, label %65, label %64

64:                                               ; preds = %61
  store ptr null, ptr %5, align 8
  store i32 1, ptr %15, align 4
  br label %188

65:                                               ; preds = %61
  br label %87

66:                                               ; preds = %52
  %67 = load i64, ptr %14, align 8
  %68 = icmp eq i64 %67, 0
  br i1 %68, label %69, label %86

69:                                               ; preds = %66
  %70 = load ptr, ptr %9, align 8
  %71 = icmp ne ptr %70, null
  br i1 %71, label %86, label %72

72:                                               ; preds = %69
  %73 = load ptr, ptr %11, align 8
  %74 = getelementptr inbounds nuw %"struct.nanobind::detail::type_data", ptr %73, i32 0, i32 1
  %75 = load i32, ptr %74, align 4
  %76 = lshr i32 %75, 8
  %77 = and i32 %76, 131072
  %78 = icmp ne i32 %77, 0
  br i1 %78, label %86, label %79

79:                                               ; preds = %72
  %80 = load ptr, ptr %12, align 8
  %81 = getelementptr inbounds nuw %"struct.nanobind::detail::nb_func", ptr %80, i32 0, i32 1
  %82 = load ptr, ptr %81, align 8
  %83 = load ptr, ptr %12, align 8
  %84 = invoke noundef ptr %82(ptr noundef %83, ptr noundef null, i64 noundef 0, ptr noundef null)
          to label %85 unwind label %190

85:                                               ; preds = %79
  store ptr %84, ptr %5, align 8
  store i32 1, ptr %15, align 4
  br label %188

86:                                               ; preds = %72, %69, %66
  br label %87

87:                                               ; preds = %86, %65
  call void @llvm.lifetime.start.p0(i64 8, ptr %16) #20
  store i64 5, ptr %16, align 8
  call void @llvm.lifetime.start.p0(i64 8, ptr %17) #20
  call void @llvm.lifetime.start.p0(i64 40, ptr %18) #20
  call void @llvm.lifetime.start.p0(i64 8, ptr %19) #20
  store ptr null, ptr %19, align 8
  call void @llvm.lifetime.start.p0(i64 1, ptr %20) #20
  store i8 0, ptr %20, align 1
  %88 = load i64, ptr %8, align 8
  %89 = and i64 %88, -9223372036854775808
  %90 = icmp ne i64 %89, 0
  %91 = zext i1 %90 to i64
  %92 = call i64 @llvm.expect.i64(i64 %91, i64 1)
  %93 = icmp ne i64 %92, 0
  br i1 %93, label %94, label %100

94:                                               ; preds = %87
  %95 = load ptr, ptr %7, align 8
  %96 = getelementptr inbounds ptr, ptr %95, i64 -1
  store ptr %96, ptr %17, align 8
  %97 = load ptr, ptr %17, align 8
  %98 = getelementptr inbounds ptr, ptr %97, i64 0
  %99 = load ptr, ptr %98, align 8
  store ptr %99, ptr %19, align 8
  br label %143

100:                                              ; preds = %87
  call void @llvm.lifetime.start.p0(i64 8, ptr %21) #20
  %101 = load i64, ptr %14, align 8
  %102 = add nsw i64 %101, 1
  store i64 %102, ptr %21, align 8
  %103 = load ptr, ptr %9, align 8
  %104 = icmp ne ptr %103, null
  br i1 %104, label %105, label %111

105:                                              ; preds = %100
  %106 = load ptr, ptr %9, align 8
  %107 = getelementptr inbounds nuw %struct.PyVarObject, ptr %106, i32 0, i32 1
  %108 = load i64, ptr %107, align 8
  %109 = load i64, ptr %21, align 8
  %110 = add i64 %109, %108
  store i64 %110, ptr %21, align 8
  br label %111

111:                                              ; preds = %105, %100
  %112 = load i64, ptr %21, align 8
  %113 = icmp ult i64 %112, 5
  br i1 %113, label %114, label %116

114:                                              ; preds = %111
  %115 = getelementptr inbounds [5 x ptr], ptr %18, i64 0, i64 0
  store ptr %115, ptr %17, align 8
  br label %133

116:                                              ; preds = %111
  %117 = load i64, ptr %21, align 8
  %118 = mul i64 %117, 8
  %119 = invoke ptr @PyMem_Malloc(i64 noundef %118)
          to label %120 unwind label %190

120:                                              ; preds = %116
  store ptr %119, ptr %17, align 8
  %121 = load ptr, ptr %17, align 8
  %122 = icmp ne ptr %121, null
  br i1 %122, label %132, label %123

123:                                              ; preds = %120
  %124 = load i8, ptr %13, align 1, !range !3, !noundef !4
  %125 = trunc i8 %124 to i1
  br i1 %125, label %126, label %129

126:                                              ; preds = %123
  %127 = load ptr, ptr %6, align 8
  invoke void @_ZL10_Py_DECREFP7_object(ptr noundef %127)
          to label %128 unwind label %190

128:                                              ; preds = %126
  br label %129

129:                                              ; preds = %128, %123
  %130 = invoke ptr @PyErr_NoMemory()
          to label %131 unwind label %190

131:                                              ; preds = %129
  store ptr %130, ptr %5, align 8
  store i32 1, ptr %15, align 4
  br label %140

132:                                              ; preds = %120
  store i8 1, ptr %20, align 1
  br label %133

133:                                              ; preds = %132, %114
  %134 = load ptr, ptr %17, align 8
  %135 = getelementptr inbounds ptr, ptr %134, i64 1
  %136 = load ptr, ptr %7, align 8
  %137 = load i64, ptr %21, align 8
  %138 = sub i64 %137, 1
  %139 = mul i64 8, %138
  call void @llvm.memcpy.p0.p0.i64(ptr align 8 %135, ptr align 8 %136, i64 %139, i1 false)
  store i32 0, ptr %15, align 4
  br label %140

140:                                              ; preds = %133, %131
  call void @llvm.lifetime.end.p0(i64 8, ptr %21) #20
  %141 = load i32, ptr %15, align 4
  switch i32 %141, label %187 [
    i32 0, label %142
  ]

142:                                              ; preds = %140
  br label %143

143:                                              ; preds = %142, %94
  %144 = load ptr, ptr %6, align 8
  %145 = load ptr, ptr %17, align 8
  %146 = getelementptr inbounds ptr, ptr %145, i64 0
  store ptr %144, ptr %146, align 8
  call void @llvm.lifetime.start.p0(i64 8, ptr %22) #20
  %147 = load ptr, ptr %12, align 8
  %148 = getelementptr inbounds nuw %"struct.nanobind::detail::nb_func", ptr %147, i32 0, i32 1
  %149 = load ptr, ptr %148, align 8
  %150 = load ptr, ptr %12, align 8
  %151 = load ptr, ptr %17, align 8
  %152 = load i64, ptr %14, align 8
  %153 = add nsw i64 %152, 1
  %154 = load ptr, ptr %9, align 8
  %155 = invoke noundef ptr %149(ptr noundef %150, ptr noundef %151, i64 noundef %153, ptr noundef %154)
          to label %156 unwind label %190

156:                                              ; preds = %143
  store ptr %155, ptr %22, align 8
  %157 = load ptr, ptr %19, align 8
  %158 = load ptr, ptr %17, align 8
  %159 = getelementptr inbounds ptr, ptr %158, i64 0
  store ptr %157, ptr %159, align 8
  %160 = load i8, ptr %20, align 1, !range !3, !noundef !4
  %161 = trunc i8 %160 to i1
  %162 = zext i1 %161 to i64
  %163 = call i64 @llvm.expect.i64(i64 %162, i64 0)
  %164 = icmp ne i64 %163, 0
  br i1 %164, label %165, label %168

165:                                              ; preds = %156
  %166 = load ptr, ptr %17, align 8
  invoke void @PyMem_Free(ptr noundef %166)
          to label %167 unwind label %190

167:                                              ; preds = %165
  br label %168

168:                                              ; preds = %167, %156
  %169 = load i8, ptr %13, align 1, !range !3, !noundef !4
  %170 = trunc i8 %169 to i1
  %171 = zext i1 %170 to i64
  %172 = call i64 @llvm.expect.i64(i64 %171, i64 1)
  %173 = icmp ne i64 %172, 0
  br i1 %173, label %174, label %184

174:                                              ; preds = %168
  %175 = load ptr, ptr %22, align 8
  %176 = icmp ne ptr %175, null
  br i1 %176, label %180, label %177

177:                                              ; preds = %174
  %178 = load ptr, ptr %6, align 8
  invoke void @_ZL10_Py_DECREFP7_object(ptr noundef %178)
          to label %179 unwind label %190

179:                                              ; preds = %177
  store ptr null, ptr %5, align 8
  store i32 1, ptr %15, align 4
  br label %186

180:                                              ; preds = %174
  %181 = load ptr, ptr %22, align 8
  invoke void @_ZL10_Py_DECREFP7_object(ptr noundef %181)
          to label %182 unwind label %190

182:                                              ; preds = %180
  %183 = load ptr, ptr %6, align 8
  store ptr %183, ptr %5, align 8
  store i32 1, ptr %15, align 4
  br label %186

184:                                              ; preds = %168
  %185 = load ptr, ptr %22, align 8
  store ptr %185, ptr %5, align 8
  store i32 1, ptr %15, align 4
  br label %186

186:                                              ; preds = %184, %182, %179
  call void @llvm.lifetime.end.p0(i64 8, ptr %22) #20
  br label %187

187:                                              ; preds = %186, %140
  call void @llvm.lifetime.end.p0(i64 1, ptr %20) #20
  call void @llvm.lifetime.end.p0(i64 8, ptr %19) #20
  call void @llvm.lifetime.end.p0(i64 40, ptr %18) #20
  call void @llvm.lifetime.end.p0(i64 8, ptr %17) #20
  call void @llvm.lifetime.end.p0(i64 8, ptr %16) #20
  br label %188

188:                                              ; preds = %187, %85, %64, %51
  call void @llvm.lifetime.end.p0(i64 8, ptr %14) #20
  call void @llvm.lifetime.end.p0(i64 1, ptr %13) #20
  call void @llvm.lifetime.end.p0(i64 8, ptr %12) #20
  call void @llvm.lifetime.end.p0(i64 8, ptr %11) #20
  call void @llvm.lifetime.end.p0(i64 8, ptr %10) #20
  %189 = load ptr, ptr %5, align 8
  ret ptr %189

190:                                              ; preds = %180, %177, %165, %143, %129, %126, %116, %79, %58, %45, %4
  %191 = landingpad { ptr, i32 }
          catch ptr null
  %192 = extractvalue { ptr, i32 } %191, 0
  call void @__clang_call_terminate(ptr %192) #22
  unreachable
}