; Function Attrs: mustprogress nounwind uwtable
define internal noundef ptr @_ZN8nanobind6detailL18nb_type_vectorcallEP7_objectPKS2_mS2_(ptr noundef %0, ptr noundef %1, i64 noundef %2, ptr noundef %3) #5 personality ptr @__gxx_personality_v0 {
  %5 = alloca [5 x ptr], align 16
  %6 = getelementptr inbounds nuw i8, ptr %0, i64 928
  %7 = load ptr, ptr %6, align 8
  %8 = getelementptr inbounds nuw i8, ptr %0, i64 892
  %9 = load i32, ptr %8, align 4
  %10 = and i32 %9, 16777216
  %11 = icmp eq i32 %10, 0
  %12 = and i64 %2, 9223372036854775807
  %.not = icmp eq ptr %7, null
  br i1 %.not, label %13, label %18, !prof !4

13:                                               ; preds = %4
  %14 = load ptr, ptr @PyExc_TypeError, align 8
  %15 = getelementptr inbounds nuw i8, ptr %0, i64 896
  %16 = load ptr, ptr %15, align 8
  %17 = invoke ptr (ptr, ptr, ...) @PyErr_Format(ptr noundef %14, ptr noundef nonnull @.str.21, ptr noundef %16)
          to label %74 unwind label %75

18:                                               ; preds = %4
  br i1 %11, label %19, label %22, !prof !3

19:                                               ; preds = %18
  %20 = invoke noundef ptr @_ZN8nanobind6detail12inst_new_intEP11_typeobjectP7_objectS4_(ptr noundef nonnull %0, ptr poison, ptr poison)
          to label %21 unwind label %75

21:                                               ; preds = %19
  %.not65 = icmp eq ptr %20, null
  br i1 %.not65, label %74, label %31

22:                                               ; preds = %18
  %23 = icmp ne i64 %12, 0
  %24 = icmp ne ptr %3, null
  %or.cond = or i1 %23, %24
  br i1 %or.cond, label %31, label %25

25:                                               ; preds = %22
  %26 = and i32 %9, 33554432
  %.not64 = icmp eq i32 %26, 0
  br i1 %.not64, label %27, label %.thread

27:                                               ; preds = %25
  %28 = getelementptr inbounds nuw i8, ptr %7, i64 24
  %29 = load ptr, ptr %28, align 8
  %30 = invoke noundef ptr %29(ptr noundef nonnull %7, ptr noundef null, i64 noundef 0, ptr noundef null)
          to label %74 unwind label %75

31:                                               ; preds = %22, %21
  %.057 = phi ptr [ %20, %21 ], [ %0, %22 ]
  call void @llvm.lifetime.start.p0(i64 40, ptr nonnull %5) #29
  %.not66 = icmp sgt i64 %2, -1
  br i1 %.not66, label %35, label %32, !prof !4

.thread:                                          ; preds = %25
  call void @llvm.lifetime.start.p0(i64 40, ptr nonnull %5) #29
  %.not6677 = icmp sgt i64 %2, -1
  br i1 %.not6677, label %.thread91, label %32, !prof !4

32:                                               ; preds = %.thread, %31
  %.05779 = phi ptr [ %0, %.thread ], [ %.057, %31 ]
  %33 = getelementptr inbounds i8, ptr %1, i64 -8
  %34 = load ptr, ptr %33, align 8
  br label %57

35:                                               ; preds = %31
  %36 = add nuw nsw i64 %12, 1
  %.not67 = icmp eq ptr %3, null
  br i1 %.not67, label %41, label %37

37:                                               ; preds = %35
  %38 = getelementptr inbounds nuw i8, ptr %3, i64 16
  %39 = load i64, ptr %38, align 8
  %40 = add i64 %39, %36
  br label %41

41:                                               ; preds = %37, %35
  %.049 = phi i64 [ %40, %37 ], [ %36, %35 ]
  %42 = icmp ugt i64 %.049, 4
  br i1 %42, label %43, label %.thread91

43:                                               ; preds = %41
  %44 = shl i64 %.049, 3
  %45 = invoke ptr @PyMem_Malloc(i64 noundef %44)
          to label %46 unwind label %75

46:                                               ; preds = %43
  %.not68 = icmp eq ptr %45, null
  br i1 %.not68, label %47, label %.thread91

47:                                               ; preds = %46
  br i1 %11, label %48, label %_ZL10_Py_DECREFP7_object.exit

48:                                               ; preds = %47
  %49 = load i64, ptr %.057, align 8
  %50 = add nsw i64 %49, -1
  store i64 %50, ptr %.057, align 8
  %.not.i = icmp eq i64 %50, 0
  br i1 %.not.i, label %51, label %_ZL10_Py_DECREFP7_object.exit

51:                                               ; preds = %48
  invoke void @_Py_Dealloc(ptr noundef nonnull %.057)
          to label %_ZL10_Py_DECREFP7_object.exit unwind label %75

_ZL10_Py_DECREFP7_object.exit:                    ; preds = %48, %51, %47
  %52 = invoke ptr @PyErr_NoMemory()
          to label %_ZL10_Py_DECREFP7_object.exit72 unwind label %75

.thread91:                                        ; preds = %.thread, %41, %46
  %53 = phi i1 [ false, %41 ], [ true, %46 ], [ false, %.thread ]
  %.04990 = phi i64 [ %.049, %41 ], [ %.049, %46 ], [ 1, %.thread ]
  %.057808489 = phi ptr [ %.057, %41 ], [ %.057, %46 ], [ %0, %.thread ]
  %.155 = phi ptr [ %5, %41 ], [ %45, %46 ], [ %5, %.thread ]
  %54 = getelementptr inbounds nuw i8, ptr %.155, i64 8
  %55 = shl i64 %.04990, 3
  %56 = add i64 %55, -8
  call void @llvm.memcpy.p0.p0.i64(ptr nonnull align 8 %54, ptr align 8 %1, i64 %56, i1 false)
  br label %57

57:                                               ; preds = %.thread91, %32
  %.05778 = phi ptr [ %.05779, %32 ], [ %.057808489, %.thread91 ]
  %.054 = phi ptr [ %33, %32 ], [ %.155, %.thread91 ]
  %.053 = phi ptr [ %34, %32 ], [ null, %.thread91 ]
  %.050 = phi i1 [ false, %32 ], [ %53, %.thread91 ]
  store ptr %.05778, ptr %.054, align 8
  %58 = getelementptr inbounds nuw i8, ptr %7, i64 24
  %59 = load ptr, ptr %58, align 8
  %60 = add nuw nsw i64 %12, 1
  %61 = invoke noundef ptr %59(ptr noundef nonnull %7, ptr noundef nonnull %.054, i64 noundef %60, ptr noundef %3)
          to label %62 unwind label %75

62:                                               ; preds = %57
  store ptr %.053, ptr %.054, align 8
  br i1 %.050, label %63, label %64, !prof !4

63:                                               ; preds = %62
  invoke void @PyMem_Free(ptr noundef nonnull %.054)
          to label %64 unwind label %75

64:                                               ; preds = %63, %62
  br i1 %11, label %65, label %_ZL10_Py_DECREFP7_object.exit72, !prof !3

65:                                               ; preds = %64
  %.not69 = icmp eq ptr %61, null
  br i1 %.not69, label %66, label %70

66:                                               ; preds = %65
  %67 = load i64, ptr %.05778, align 8
  %68 = add nsw i64 %67, -1
  store i64 %68, ptr %.05778, align 8
  %.not.i70 = icmp eq i64 %68, 0
  br i1 %.not.i70, label %69, label %_ZL10_Py_DECREFP7_object.exit72

69:                                               ; preds = %66
  invoke void @_Py_Dealloc(ptr noundef nonnull %.05778)
          to label %_ZL10_Py_DECREFP7_object.exit72 unwind label %75

70:                                               ; preds = %65
  %71 = load i64, ptr %61, align 8
  %72 = add nsw i64 %71, -1
  store i64 %72, ptr %61, align 8
  %.not.i73 = icmp eq i64 %72, 0
  br i1 %.not.i73, label %73, label %_ZL10_Py_DECREFP7_object.exit72

73:                                               ; preds = %70
  invoke void @_Py_Dealloc(ptr noundef nonnull %61)
          to label %_ZL10_Py_DECREFP7_object.exit72 unwind label %75

_ZL10_Py_DECREFP7_object.exit72:                  ; preds = %70, %73, %66, %69, %_ZL10_Py_DECREFP7_object.exit, %64
  %.2 = phi ptr [ %61, %64 ], [ %52, %_ZL10_Py_DECREFP7_object.exit ], [ null, %69 ], [ null, %66 ], [ %.05778, %73 ], [ %.05778, %70 ]
  call void @llvm.lifetime.end.p0(i64 40, ptr nonnull %5) #29
  br label %74

74:                                               ; preds = %27, %21, %13, %_ZL10_Py_DECREFP7_object.exit72
  %.0 = phi ptr [ %.2, %_ZL10_Py_DECREFP7_object.exit72 ], [ null, %13 ], [ null, %21 ], [ %30, %27 ]
  ret ptr %.0

75:                                               ; preds = %73, %69, %51, %63, %57, %_ZL10_Py_DECREFP7_object.exit, %43, %27, %19, %13
  %76 = landingpad { ptr, i32 }
          catch ptr null
  %77 = extractvalue { ptr, i32 } %76, 0
  call void @__clang_call_terminate(ptr %77) #30
  unreachable
}